target datalayout = "e-m:e-p270:32:32-p271:32:32-p272:64:64-i64:64-i128:128-f80:128-n8:16:32:64-S128"
target triple = "x86_64-pc-linux-gnu"

%"struct.std::_Rb_tree_header" = type { %"struct.std::_Rb_tree_node_base", i64 }
%"struct.std::_Rb_tree_node_base" = type { i32, ptr, ptr, ptr }
%"class.nix::AutoCloseFD" = type { i32 }
%"struct.nix::FdSink" = type <{ %"struct.nix::BufferedSink", i32, [4 x i8], i64, i8, [7 x i8] }>
%"struct.nix::BufferedSink" = type { %"struct.nix::Sink", i64, i64, %"class.std::unique_ptr" }
%"struct.nix::Sink" = type { ptr }
%"class.std::unique_ptr" = type { %"struct.std::__uniq_ptr_data" }
%"struct.std::__uniq_ptr_data" = type { %"class.std::__uniq_ptr_impl" }
%"class.std::__uniq_ptr_impl" = type { %"class.std::tuple" }
%"class.std::tuple" = type { %"struct.std::_Tuple_impl" }
%"struct.std::_Tuple_impl" = type { %"struct.std::_Head_base.1" }
%"struct.std::_Head_base.1" = type { ptr }
%"struct.nix::HookInstance" = type { %"class.nix::Pipe", %"class.nix::Pipe", %"class.nix::Pipe", %"class.nix::Pid", [4 x i8], %"struct.nix::FdSink", %"class.std::map" }
%"class.nix::Pipe" = type { %"class.nix::AutoCloseFD", %"class.nix::AutoCloseFD" }
%"class.nix::Pid" = type { i32, i8, i32 }
%"class.std::map" = type { %"class.std::_Rb_tree" }
%"class.std::_Rb_tree" = type { %"struct.std::_Rb_tree<unsigned long, std::pair<const unsigned long, nix::Activity>, std::_Select1st<std::pair<const unsigned long, nix::Activity>>, std::less<unsigned long>>::_Rb_tree_impl" }
%"struct.std::_Rb_tree<unsigned long, std::pair<const unsigned long, nix::Activity>, std::_Select1st<std::pair<const unsigned long, nix::Activity>>, std::less<unsigned long>>::_Rb_tree_impl" = type { %"struct.std::_Rb_tree_key_compare", %"struct.std::_Rb_tree_header" }
%"struct.std::_Rb_tree_key_compare" = type { %"struct.std::less" }
%"struct.std::less" = type { i8 }

; Function Attrs: mustprogress nounwind uwtable
define linkonce_odr void @_ZNSaISt13_Rb_tree_nodeISt4pairIKmN3nix8ActivityEEEED2Ev(ptr noundef nonnull align 1 dereferenceable(1) %0) unnamed_addr #2 comdat align 2 {
  %2 = alloca ptr, align 8
  store ptr %0, ptr %2, align 8
  ret void
}

; Function Attrs: mustprogress nounwind uwtable
define linkonce_odr noundef ptr @_ZNKSt8_Rb_treeImSt4pairIKmN3nix8ActivityEESt10_Select1stIS4_ESt4lessImESaIS4_EE9_M_mbeginEv(ptr noundef nonnull align 8 dereferenceable(48) %0) #2 comdat align 2 {
  %2 = alloca ptr, align 8
  store ptr %0, ptr %2, align 8
  %3 = load ptr, ptr %2, align 8
  %4 = getelementptr inbounds %"class.std::_Rb_tree", ptr %3, i32 0, i32 0
  %5 = getelementptr inbounds i8, ptr %4, i64 8
  %6 = getelementptr inbounds %"struct.std::_Rb_tree_header", ptr %5, i32 0, i32 0
  %7 = getelementptr inbounds %"struct.std::_Rb_tree_node_base", ptr %6, i32 0, i32 1
  %8 = load ptr, ptr %7, align 8
  ret ptr %8
}

; Function Attrs: mustprogress nounwind uwtable
define linkonce_odr void @_ZNSt8_Rb_treeImSt4pairIKmN3nix8ActivityEESt10_Select1stIS4_ESt4lessImESaIS4_EE13_Rb_tree_implIS8_Lb1EED2Ev(ptr noundef nonnull align 8 dereferenceable(48) %0) unnamed_addr #2 comdat align 2 {
  %2 = alloca ptr, align 8
  store ptr %0, ptr %2, align 8
  %3 = load ptr, ptr %2, align 8
  call void @_ZNSaISt13_Rb_tree_nodeISt4pairIKmN3nix8ActivityEEEED2Ev(ptr noundef nonnull align 1 dereferenceable(1) %3) #1
  ret void
}

; Function Attrs: mustprogress nounwind uwtable
define linkonce_odr noundef ptr @_ZNSt8_Rb_treeImSt4pairIKmN3nix8ActivityEESt10_Select1stIS4_ESt4lessImESaIS4_EE8_M_beginEv(ptr noundef nonnull align 8 dereferenceable(48) %0) #2 comdat align 2 {
  %2 = alloca ptr, align 8
  store ptr %0, ptr %2, align 8
  %3 = load ptr, ptr %2, align 8
  %4 = call noundef ptr @_ZNKSt8_Rb_treeImSt4pairIKmN3nix8ActivityEESt10_Select1stIS4_ESt4lessImESaIS4_EE9_M_mbeginEv(ptr noundef nonnull align 8 dereferenceable(48) %3) #1
  ret ptr %4
}

; Function Attrs: mustprogress nounwind uwtable
define linkonce_odr void @_ZNSt8_Rb_treeImSt4pairIKmN3nix8ActivityEESt10_Select1stIS4_ESt4lessImESaIS4_EED2Ev(ptr noundef nonnull align 8 dereferenceable(48) %0) unnamed_addr #2 comdat align 2 personality ptr @__gxx_personality_v0 {
  %2 = alloca ptr, align 8
  store ptr %0, ptr %2, align 8
  %3 = load ptr, ptr %2, align 8
  %4 = call noundef ptr @_ZNSt8_Rb_treeImSt4pairIKmN3nix8ActivityEESt10_Select1stIS4_ESt4lessImESaIS4_EE8_M_beginEv(ptr noundef nonnull align 8 dereferenceable(48) %3) #1
  invoke void @_ZNSt8_Rb_treeImSt4pairIKmN3nix8ActivityEESt10_Select1stIS4_ESt4lessImESaIS4_EE8_M_eraseEPSt13_Rb_tree_nodeIS4_E(ptr noundef nonnull align 8 dereferenceable(48) %3, ptr noundef %4)
          to label %5 unwind label %7

5:                                                ; preds = %1
  %6 = getelementptr inbounds %"class.std::_Rb_tree", ptr %3, i32 0, i32 0
  call void @_ZNSt8_Rb_treeImSt4pairIKmN3nix8ActivityEESt10_Select1stIS4_ESt4lessImESaIS4_EE13_Rb_tree_implIS8_Lb1EED2Ev(ptr noundef nonnull align 8 dereferenceable(48) %6) #1
  ret void

7:                                                ; preds = %1
  %8 = landingpad { ptr, i32 }
          catch ptr null
  %9 = extractvalue { ptr, i32 } %8, 0
  call void @__clang_call_terminate(ptr %9) #18
  unreachable
}

; Function Attrs: mustprogress nounwind uwtable
define linkonce_odr void @_ZN3nix4PipeD2Ev(ptr noundef nonnull align 4 dereferenceable(8) %0) unnamed_addr #2 comdat align 2 {
  %2 = alloca ptr, align 8
  store ptr %0, ptr %2, align 8
  %3 = load ptr, ptr %2, align 8
  %4 = getelementptr inbounds %"class.nix::Pipe", ptr %3, i32 0, i32 1
  call void @_ZN3nix11AutoCloseFDD1Ev(ptr noundef nonnull align 4 dereferenceable(4) %4) #1
  %5 = getelementptr inbounds %"class.nix::Pipe", ptr %3, i32 0, i32 0
  call void @_ZN3nix11AutoCloseFDD1Ev(ptr noundef nonnull align 4 dereferenceable(4) %5) #1
  ret void
}

; Function Attrs: mustprogress nounwind uwtable
define linkonce_odr void @_ZNSt3mapImN3nix8ActivityESt4lessImESaISt4pairIKmS1_EEED2Ev(ptr noundef nonnull align 8 dereferenceable(48) %0) unnamed_addr #2 comdat align 2 {
  %2 = alloca ptr, align 8
  store ptr %0, ptr %2, align 8
  %3 = load ptr, ptr %2, align 8
  %4 = getelementptr inbounds %"class.std::map", ptr %3, i32 0, i32 0
  call void @_ZNSt8_Rb_treeImSt4pairIKmN3nix8ActivityEESt10_Select1stIS4_ESt4lessImESaIS4_EED2Ev(ptr noundef nonnull align 8 dereferenceable(48) %4) #1
  ret void
}

; Function Attrs: mustprogress nounwind uwtable
define void @_ZN3nix12HookInstanceD2Ev(ptr noundef nonnull align 8 dereferenceable(144) %0) unnamed_addr #2 align 2 personality ptr @__gxx_personality_v0 {
  %2 = alloca ptr, align 8
  %3 = alloca %"class.nix::AutoCloseFD", align 4
  %4 = alloca ptr, align 8
  %5 = alloca i32, align 4
  store ptr %0, ptr %2, align 8
  %6 = load ptr, ptr %2, align 8
  invoke void @_ZN3nix11AutoCloseFDC1Ei(ptr noundef nonnull align 4 dereferenceable(4) %3, i32 noundef -1)
          to label %7 unwind label %20

7:                                                ; preds = %1
  %8 = getelementptr inbounds %"struct.nix::HookInstance", ptr %6, i32 0, i32 0
  %9 = getelementptr inbounds %"class.nix::Pipe", ptr %8, i32 0, i32 1
  %10 = invoke noundef nonnull align 4 dereferenceable(4) ptr @_ZN3nix11AutoCloseFDaSEOS0_(ptr noundef nonnull align 4 dereferenceable(4) %9, ptr noundef nonnull align 4 dereferenceable(4) %3)
          to label %11 unwind label %24

11:                                               ; preds = %7
  call void @_ZN3nix11AutoCloseFDD1Ev(ptr noundef nonnull align 4 dereferenceable(4) %3) #1
  %12 = getelementptr inbounds %"struct.nix::HookInstance", ptr %6, i32 0, i32 3
  %13 = invoke noundef i32 @_ZN3nix3PidcviEv(ptr noundef nonnull align 4 dereferenceable(12) %12)
          to label %14 unwind label %20

14:                                               ; preds = %11
  %15 = icmp ne i32 %13, -1
  br i1 %15, label %16, label %40

16:                                               ; preds = %14
  %17 = getelementptr inbounds %"struct.nix::HookInstance", ptr %6, i32 0, i32 3
  %18 = invoke noundef i32 @_ZN3nix3Pid4killEv(ptr noundef nonnull align 4 dereferenceable(12) %17)
          to label %19 unwind label %20

19:                                               ; preds = %16
  br label %40

20:                                               ; preds = %16, %11, %1
  %21 = landingpad { ptr, i32 }
          catch ptr null
  %22 = extractvalue { ptr, i32 } %21, 0
  store ptr %22, ptr %4, align 8
  %23 = extractvalue { ptr, i32 } %21, 1
  store i32 %23, ptr %5, align 4
  br label %28

24:                                               ; preds = %7
  %25 = landingpad { ptr, i32 }
          catch ptr null
  %26 = extractvalue { ptr, i32 } %25, 0
  store ptr %26, ptr %4, align 8
  %27 = extractvalue { ptr, i32 } %25, 1
  store i32 %27, ptr %5, align 4
  call void @_ZN3nix11AutoCloseFDD1Ev(ptr noundef nonnull align 4 dereferenceable(4) %3) #1
  br label %28

28:                                               ; preds = %24, %20
  %29 = load ptr, ptr %4, align 8
  %30 = call ptr @__cxa_begin_catch(ptr %29) #1
  invoke void @_ZN3nix15ignoreExceptionENS_9VerbosityE(i32 noundef 0)
          to label %31 unwind label %41

31:                                               ; preds = %28
  invoke void @__cxa_end_catch()
          to label %32 unwind label %41

32:                                               ; preds = %31
  br label %33

33:                                               ; preds = %40, %32
  %34 = getelementptr inbounds %"struct.nix::HookInstance", ptr %6, i32 0, i32 6
  call void @_ZNSt3mapImN3nix8ActivityESt4lessImESaISt4pairIKmS1_EEED2Ev(ptr noundef nonnull align 8 dereferenceable(48) %34) #1
  %35 = getelementptr inbounds %"struct.nix::HookInstance", ptr %6, i32 0, i32 5
  call void @_ZN3nix6FdSinkD1Ev(ptr noundef nonnull align 8 dereferenceable(49) %35) #1
  %36 = getelementptr inbounds %"struct.nix::HookInstance", ptr %6, i32 0, i32 3
  call void @_ZN3nix3PidD1Ev(ptr noundef nonnull align 4 dereferenceable(12) %36) #1
  %37 = getelementptr inbounds %"struct.nix::HookInstance", ptr %6, i32 0, i32 2
  call void @_ZN3nix4PipeD2Ev(ptr noundef nonnull align 4 dereferenceable(8) %37) #1
  %38 = getelementptr inbounds %"struct.nix::HookInstance", ptr %6, i32 0, i32 1
  call void @_ZN3nix4PipeD2Ev(ptr noundef nonnull align 4 dereferenceable(8) %38) #1
  %39 = getelementptr inbounds %"struct.nix::HookInstance", ptr %6, i32 0, i32 0
  call void @_ZN3nix4PipeD2Ev(ptr noundef nonnull align 4 dereferenceable(8) %39) #1
  ret void

40:                                               ; preds = %19, %14
  br label %33

41:                                               ; preds = %31, %28
  %42 = landingpad { ptr, i32 }
          catch ptr null
  %43 = extractvalue { ptr, i32 } %42, 0
  call void @__clang_call_terminate(ptr %43) #18
  unreachable
}