; Function Attrs: mustprogress nounwind uwtable
define void @_ZN3nix12HookInstanceD2Ev(ptr noundef nonnull align 8 dereferenceable(144) %0) unnamed_addr #5 align 2 personality ptr @__gxx_personality_v0 {
  %2 = alloca %"class.nix::AutoCloseFD", align 4
  invoke void @_ZN3nix11AutoCloseFDC1Ei(ptr noundef nonnull align 4 dereferenceable(4) %2, i32 noundef -1)
          to label %3 unwind label %12

3:                                                ; preds = %1
  %4 = getelementptr inbounds i8, ptr %0, i64 4
  %5 = invoke noundef nonnull align 4 dereferenceable(4) ptr @_ZN3nix11AutoCloseFDaSEOS0_(ptr noundef nonnull align 4 dereferenceable(4) %4, ptr noundef nonnull align 4 dereferenceable(4) %2)
          to label %6 unwind label %14

6:                                                ; preds = %3
  call void @_ZN3nix11AutoCloseFDD1Ev(ptr noundef nonnull align 4 dereferenceable(4) %2) #22
  %7 = getelementptr inbounds i8, ptr %0, i64 24
  %8 = invoke noundef i32 @_ZN3nix3PidcviEv(ptr noundef nonnull align 4 dereferenceable(12) %7)
          to label %9 unwind label %12

9:                                                ; preds = %6
  %.not = icmp eq i32 %8, -1
  br i1 %.not, label %19, label %10

10:                                               ; preds = %9
  %11 = invoke noundef i32 @_ZN3nix3Pid4killEv(ptr noundef nonnull align 4 dereferenceable(12) %7)
          to label %19 unwind label %12

12:                                               ; preds = %10, %6, %1
  %13 = landingpad { ptr, i32 }
          catch ptr null
  br label %16

14:                                               ; preds = %3
  %15 = landingpad { ptr, i32 }
          catch ptr null
  call void @_ZN3nix11AutoCloseFDD1Ev(ptr noundef nonnull align 4 dereferenceable(4) %2) #22
  br label %16

16:                                               ; preds = %14, %12
  %.pn = phi { ptr, i32 } [ %13, %12 ], [ %15, %14 ]
  %.0 = extractvalue { ptr, i32 } %.pn, 0
  %17 = call ptr @__cxa_begin_catch(ptr %.0) #22
  invoke void @_ZN3nix15ignoreExceptionENS_9VerbosityE(i32 noundef 0)
          to label %18 unwind label %33

18:                                               ; preds = %16
  invoke void @__cxa_end_catch()
          to label %19 unwind label %33

19:                                               ; preds = %9, %10, %18
  %20 = getelementptr inbounds i8, ptr %0, i64 96
  %21 = getelementptr inbounds i8, ptr %0, i64 112
  %22 = load ptr, ptr %21, align 8
  invoke void @_ZNSt8_Rb_treeImSt4pairIKmN3nix8ActivityEESt10_Select1stIS4_ESt4lessImESaIS4_EE8_M_eraseEPSt13_Rb_tree_nodeIS4_E(ptr noundef nonnull align 8 dereferenceable(48) %20, ptr noundef %22)
          to label %_ZNSt3mapImN3nix8ActivityESt4lessImESaISt4pairIKmS1_EEED2Ev.exit unwind label %23

23:                                               ; preds = %19
  %24 = landingpad { ptr, i32 }
          catch ptr null
  %25 = extractvalue { ptr, i32 } %24, 0
  call void @__clang_call_terminate(ptr %25) #26
  unreachable

_ZNSt3mapImN3nix8ActivityESt4lessImESaISt4pairIKmS1_EEED2Ev.exit: ; preds = %19
  %26 = getelementptr inbounds i8, ptr %0, i64 40
  call void @_ZN3nix6FdSinkD1Ev(ptr noundef nonnull align 8 dereferenceable(49) %26) #22
  %27 = getelementptr inbounds i8, ptr %0, i64 24
  call void @_ZN3nix3PidD1Ev(ptr noundef nonnull align 4 dereferenceable(12) %27) #22
  %28 = getelementptr inbounds i8, ptr %0, i64 16
  %29 = getelementptr inbounds i8, ptr %0, i64 20
  call void @_ZN3nix11AutoCloseFDD1Ev(ptr noundef nonnull align 4 dereferenceable(4) %29) #22
  call void @_ZN3nix11AutoCloseFDD1Ev(ptr noundef nonnull align 4 dereferenceable(4) %28) #22
  %30 = getelementptr inbounds i8, ptr %0, i64 8
  %31 = getelementptr inbounds i8, ptr %0, i64 12
  call void @_ZN3nix11AutoCloseFDD1Ev(ptr noundef nonnull align 4 dereferenceable(4) %31) #22
  call void @_ZN3nix11AutoCloseFDD1Ev(ptr noundef nonnull align 4 dereferenceable(4) %30) #22
  %32 = getelementptr inbounds i8, ptr %0, i64 4
  call void @_ZN3nix11AutoCloseFDD1Ev(ptr noundef nonnull align 4 dereferenceable(4) %32) #22
  call void @_ZN3nix11AutoCloseFDD1Ev(ptr noundef nonnull align 4 dereferenceable(4) %0) #22
  ret void

33:                                               ; preds = %18, %16
  %34 = landingpad { ptr, i32 }
          catch ptr null
  %35 = extractvalue { ptr, i32 } %34, 0
  call void @__clang_call_terminate(ptr %35) #26
  unreachable
}